; Function Attrs: mustprogress uwtable
define void @_ZN2cv17AVIWriteContainer15jputStreamShortEi(ptr noundef nonnull readonly align 8 captures(none) dereferenceable(136) %0, i32 noundef %1) local_unnamed_addr #4 align 2 {
  %3 = load ptr, ptr %0, align 8, !tbaa !153
  %4 = lshr i32 %1, 8
  %5 = trunc i32 %4 to i8
  %6 = getelementptr inbounds nuw i8, ptr %3, i64 552
  %7 = load ptr, ptr %6, align 8, !tbaa !133
  store i8 %5, ptr %7, align 1, !tbaa !27
  %8 = trunc i32 %1 to i8
  %9 = load ptr, ptr %6, align 8, !tbaa !133
  %10 = getelementptr inbounds nuw i8, ptr %9, i64 1
  store i8 %8, ptr %10, align 1, !tbaa !27
  %11 = load ptr, ptr %6, align 8, !tbaa !133
  %12 = getelementptr inbounds nuw i8, ptr %11, i64 2
  store ptr %12, ptr %6, align 8, !tbaa !133
  %13 = getelementptr inbounds nuw i8, ptr %3, i64 544
  %14 = load ptr, ptr %13, align 8, !tbaa !130
  %.not.i = icmp ult ptr %12, %14
  br i1 %.not.i, label %_ZN2cv9BitStream9jputShortEi.exit, label %15

15:                                               ; preds = %2
  %16 = getelementptr inbounds nuw i8, ptr %3, i64 536
  %17 = load ptr, ptr %16, align 8, !tbaa !123
  %18 = ptrtoint ptr %12 to i64
  %19 = ptrtoint ptr %17 to i64
  %20 = sub i64 %18, %19
  %21 = icmp sgt i64 %20, 0
  br i1 %21, label %22, label %_ZN2cv9BitStream10writeBlockEv.exit.i

22:                                               ; preds = %15
  %23 = tail call noundef nonnull align 8 dereferenceable(8) ptr @_ZNSo5writeEPKcl(ptr noundef nonnull align 8 dereferenceable(569) %3, ptr noundef %17, i64 noundef %20)
  %.pre.i.i = load ptr, ptr %16, align 8, !tbaa !123
  br label %_ZN2cv9BitStream10writeBlockEv.exit.i

_ZN2cv9BitStream10writeBlockEv.exit.i:            ; preds = %22, %15
  %24 = phi ptr [ %.pre.i.i, %22 ], [ %17, %15 ]
  %25 = getelementptr inbounds nuw i8, ptr %3, i64 560
  %26 = load i64, ptr %25, align 8, !tbaa !134
  %27 = add i64 %26, %20
  store i64 %27, ptr %25, align 8, !tbaa !134
  store ptr %24, ptr %6, align 8, !tbaa !133
  br label %_ZN2cv9BitStream9jputShortEi.exit

_ZN2cv9BitStream9jputShortEi.exit:                ; preds = %2, %_ZN2cv9BitStream10writeBlockEv.exit.i
  ret void
}